; Function Attrs: nounwind uwtable
define hidden noundef i32 @dbgsysGetLastIOError(ptr noundef %0, i32 noundef %1) local_unnamed_addr #0 {
  %3 = tail call ptr @__errno_location() #12
  %4 = load i32, ptr %3, align 4
  %5 = tail call ptr @strerror(i32 noundef %4) #11
  %6 = add nsw i32 %1, -1
  %7 = sext i32 %6 to i64
  %8 = tail call ptr @strncpy(ptr noundef %0, ptr noundef %5, i64 noundef %7) #11
  %9 = getelementptr inbounds i8, ptr %0, i64 %7
  store i8 0, ptr %9, align 1
  ret i32 0
}